; Function Attrs: mustprogress nounwind uwtable
define hidden void @_ZN7datalog17instruction_blockD2Ev(ptr noundef nonnull align 8 captures(none) dereferenceable(16) %0) unnamed_addr #4 align 2 personality ptr @__gxx_personality_v0 {
  %2 = load ptr, ptr %0, align 8, !tbaa !381
  %3 = icmp eq ptr %2, null
  br i1 %3, label %.thread, label %_ZN6vectorIPN7datalog11instructionELb0EjE3endEv.exit.i

_ZN6vectorIPN7datalog11instructionELb0EjE3endEv.exit.i: ; preds = %1
  %4 = getelementptr inbounds i8, ptr %2, i64 -4
  %5 = load i32, ptr %4, align 4, !tbaa !33
  %6 = zext i32 %5 to i64
  %7 = getelementptr inbounds nuw ptr, ptr %2, i64 %6
  %.not8.i = icmp eq i32 %5, 0
  br i1 %.not8.i, label %17, label %.lr.ph.i

._crit_edge.i:                                    ; preds = %_Z7deallocIN7datalog11instructionEEvPT_.exit.i
  %.pre.i = load ptr, ptr %0, align 8, !tbaa !381
  %.not.i.i = icmp eq ptr %.pre.i, null
  br i1 %.not.i.i, label %.thread, label %.thread3

.thread3:                                         ; preds = %._crit_edge.i
  %8 = getelementptr inbounds i8, ptr %.pre.i, i64 -4
  store i32 0, ptr %8, align 4, !tbaa !33
  br label %17

.lr.ph.i:                                         ; preds = %_ZN6vectorIPN7datalog11instructionELb0EjE3endEv.exit.i, %_Z7deallocIN7datalog11instructionEEvPT_.exit.i
  %.09.i = phi ptr [ %15, %_Z7deallocIN7datalog11instructionEEvPT_.exit.i ], [ %2, %_ZN6vectorIPN7datalog11instructionELb0EjE3endEv.exit.i ]
  %9 = load ptr, ptr %.09.i, align 8, !tbaa !384
  %10 = icmp eq ptr %9, null
  br i1 %10, label %_Z7deallocIN7datalog11instructionEEvPT_.exit.i, label %11

11:                                               ; preds = %.lr.ph.i
  %12 = load ptr, ptr %9, align 8, !tbaa !43
  %13 = getelementptr inbounds nuw i8, ptr %12, i64 24
  %14 = load ptr, ptr %13, align 8
  tail call void %14(ptr noundef nonnull align 8 dereferenceable(72) %9) #25
  invoke void @_ZN6memory10deallocateEPv(ptr noundef nonnull %9)
          to label %_Z7deallocIN7datalog11instructionEEvPT_.exit.i unwind label %23

_Z7deallocIN7datalog11instructionEEvPT_.exit.i:   ; preds = %11, %.lr.ph.i
  %15 = getelementptr inbounds nuw i8, ptr %.09.i, i64 8
  %.not.i = icmp eq ptr %15, %7
  br i1 %.not.i, label %._crit_edge.i, label %.lr.ph.i

.thread:                                          ; preds = %._crit_edge.i, %1
  %16 = getelementptr inbounds nuw i8, ptr %0, i64 8
  store ptr null, ptr %16, align 8, !tbaa !386
  br label %_ZN6vectorIPN7datalog11instructionELb0EjED2Ev.exit

17:                                               ; preds = %_ZN6vectorIPN7datalog11instructionELb0EjE3endEv.exit.i, %.thread3
  %.pr6 = phi ptr [ %.pre.i, %.thread3 ], [ %2, %_ZN6vectorIPN7datalog11instructionELb0EjE3endEv.exit.i ]
  %18 = getelementptr inbounds nuw i8, ptr %0, i64 8
  store ptr null, ptr %18, align 8, !tbaa !386
  %19 = getelementptr inbounds i8, ptr %.pr6, i64 -8
  invoke void @_ZN6memory10deallocateEPv(ptr noundef nonnull %19)
          to label %_ZN6vectorIPN7datalog11instructionELb0EjED2Ev.exit unwind label %20

20:                                               ; preds = %17
  %21 = landingpad { ptr, i32 }
          catch ptr null
  %22 = extractvalue { ptr, i32 } %21, 0
  tail call void @__clang_call_terminate(ptr %22) #26
  unreachable

_ZN6vectorIPN7datalog11instructionELb0EjED2Ev.exit: ; preds = %.thread, %17
  ret void

23:                                               ; preds = %11
  %24 = landingpad { ptr, i32 }
          catch ptr null
  %25 = extractvalue { ptr, i32 } %24, 0
  tail call void @__clang_call_terminate(ptr %25) #26
  unreachable
}